; Function Attrs: mustprogress uwtable
define noundef zeroext i1 @_ZN6google8protobuf25EncodedDescriptorDatabase10MaybeParseESt4pairIPKviEPNS0_19FileDescriptorProtoE(ptr nocapture noundef nonnull readnone align 8 dereferenceable(40) %this, ptr %encoded_file.coerce0, i32 %encoded_file.coerce1, ptr noundef %output) local_unnamed_addr #6 align 2 {
entry:
  %cmp = icmp eq ptr %encoded_file.coerce0, null
  br i1 %cmp, label %return, label %if.end

if.end:                                           ; preds = %entry
  %conv = sext i32 %encoded_file.coerce1 to i64
  %call = tail call noundef zeroext i1 @_ZN6google8protobuf8internal17ParseNoReflectionESt17basic_string_viewIcSt11char_traitsIcEERNS0_11MessageLiteE(i64 %conv, ptr nonnull %encoded_file.coerce0, ptr noundef nonnull align 8 dereferenceable(16) %output)
  br label %return

return:                                           ; preds = %entry, %if.end
  %retval.0 = phi i1 [ %call, %if.end ], [ false, %entry ]
  ret i1 %retval.0
}